target datalayout = "e-m:e-p270:32:32-p271:32:32-p272:64:64-i64:64-i128:128-f80:128-n8:16:32:64-S128"
target triple = "x86_64-pc-linux-gnu"

%struct.Nwk_Grf_t_ = type { i32, i32, i32, ptr, ptr, i32, i32, ptr, ptr, [17 x i32], [17 x i32], ptr, ptr, ptr, i32, i32 }
%struct.Nwk_Vrt_t_ = type { i32, i32, i32, i32, [0 x i32] }

; Function Attrs: nounwind uwtable
define ptr @Nwk_ManGraphListFindMinEdge(ptr noundef %0, ptr noundef %1) #0 {
  %3 = alloca ptr, align 8
  %4 = alloca ptr, align 8
  %5 = alloca ptr, align 8
  %6 = alloca ptr, align 8
  %7 = alloca i32, align 4
  store ptr %0, ptr %3, align 8, !tbaa !7
  store ptr %1, ptr %4, align 8, !tbaa !52
  call void @llvm.lifetime.start.p0(i64 8, ptr %5) #11
  call void @llvm.lifetime.start.p0(i64 8, ptr %6) #11
  store ptr null, ptr %6, align 8, !tbaa !52
  call void @llvm.lifetime.start.p0(i64 4, ptr %7) #11
  store i32 0, ptr %7, align 4, !tbaa !3
  br label %8

8:                                                ; preds = %43, %2
  %9 = load i32, ptr %7, align 4, !tbaa !3
  %10 = load ptr, ptr %4, align 8, !tbaa !52
  %11 = getelementptr inbounds nuw %struct.Nwk_Vrt_t_, ptr %10, i32 0, i32 3
  %12 = load i32, ptr %11, align 4, !tbaa !57
  %13 = icmp slt i32 %9, %12
  br i1 %13, label %14, label %27

14:                                               ; preds = %8
  %15 = load ptr, ptr %3, align 8, !tbaa !7
  %16 = getelementptr inbounds nuw %struct.Nwk_Grf_t_, ptr %15, i32 0, i32 7
  %17 = load ptr, ptr %16, align 8, !tbaa !31
  %18 = load ptr, ptr %4, align 8, !tbaa !52
  %19 = getelementptr inbounds nuw %struct.Nwk_Vrt_t_, ptr %18, i32 0, i32 4
  %20 = load i32, ptr %7, align 4, !tbaa !3
  %21 = sext i32 %20 to i64
  %22 = getelementptr inbounds [0 x i32], ptr %19, i64 0, i64 %21
  %23 = load i32, ptr %22, align 4, !tbaa !3
  %24 = sext i32 %23 to i64
  %25 = getelementptr inbounds ptr, ptr %17, i64 %24
  %26 = load ptr, ptr %25, align 8, !tbaa !52
  store ptr %26, ptr %5, align 8, !tbaa !52
  br label %27

27:                                               ; preds = %14, %8
  %28 = phi i1 [ false, %8 ], [ true, %14 ]
  br i1 %28, label %29, label %46

29:                                               ; preds = %27
  %30 = load ptr, ptr %6, align 8, !tbaa !52
  %31 = icmp eq ptr %30, null
  br i1 %31, label %40, label %32

32:                                               ; preds = %29
  %33 = load ptr, ptr %6, align 8, !tbaa !52
  %34 = getelementptr inbounds nuw %struct.Nwk_Vrt_t_, ptr %33, i32 0, i32 3
  %35 = load i32, ptr %34, align 4, !tbaa !57
  %36 = load ptr, ptr %5, align 8, !tbaa !52
  %37 = getelementptr inbounds nuw %struct.Nwk_Vrt_t_, ptr %36, i32 0, i32 3
  %38 = load i32, ptr %37, align 4, !tbaa !57
  %39 = icmp sgt i32 %35, %38
  br i1 %39, label %40, label %42

40:                                               ; preds = %32, %29
  %41 = load ptr, ptr %5, align 8, !tbaa !52
  store ptr %41, ptr %6, align 8, !tbaa !52
  br label %42

42:                                               ; preds = %40, %32
  br label %43

43:                                               ; preds = %42
  %44 = load i32, ptr %7, align 4, !tbaa !3
  %45 = add nsw i32 %44, 1
  store i32 %45, ptr %7, align 4, !tbaa !3
  br label %8, !llvm.loop !74

46:                                               ; preds = %27
  %47 = load ptr, ptr %6, align 8, !tbaa !52
  call void @llvm.lifetime.end.p0(i64 4, ptr %7) #11
  call void @llvm.lifetime.end.p0(i64 8, ptr %6) #11
  call void @llvm.lifetime.end.p0(i64 8, ptr %5) #11
  ret ptr %47
}