; Function Attrs: nofree norecurse nosync nounwind memory(read, inaccessiblemem: none) uwtable
define ptr @Nwk_ManGraphListFindMinEdge(ptr noundef readonly captures(none) %0, ptr noundef readonly captures(none) %1) local_unnamed_addr #11 {
  %3 = getelementptr inbounds nuw i8, ptr %1, i64 12
  %4 = load i32, ptr %3, align 4, !tbaa !53
  %5 = icmp sgt i32 %4, 0
  br i1 %5, label %.lr.ph, label %.critedge

.lr.ph:                                           ; preds = %2
  %6 = getelementptr inbounds nuw i8, ptr %0, i64 40
  %7 = load ptr, ptr %6, align 8, !tbaa !27
  %8 = getelementptr inbounds nuw i8, ptr %1, i64 16
  %wide.trip.count = zext nneg i32 %4 to i64
  br label %9

9:                                                ; preds = %.lr.ph, %23
  %indvars.iv = phi i64 [ 0, %.lr.ph ], [ %indvars.iv.next, %23 ]
  %.01011 = phi ptr [ null, %.lr.ph ], [ %.1, %23 ]
  %10 = getelementptr inbounds nuw [0 x i32], ptr %8, i64 0, i64 %indvars.iv
  %11 = load i32, ptr %10, align 4, !tbaa !42
  %12 = sext i32 %11 to i64
  %13 = getelementptr inbounds ptr, ptr %7, i64 %12
  %14 = load ptr, ptr %13, align 8, !tbaa !48
  %15 = icmp eq ptr %.01011, null
  br i1 %15, label %22, label %16

16:                                               ; preds = %9
  %17 = getelementptr inbounds nuw i8, ptr %.01011, i64 12
  %18 = load i32, ptr %17, align 4, !tbaa !53
  %19 = getelementptr inbounds nuw i8, ptr %14, i64 12
  %20 = load i32, ptr %19, align 4, !tbaa !53
  %21 = icmp sgt i32 %18, %20
  br i1 %21, label %22, label %23

22:                                               ; preds = %16, %9
  br label %23

23:                                               ; preds = %16, %22
  %.1 = phi ptr [ %14, %22 ], [ %.01011, %16 ]
  %indvars.iv.next = add nuw nsw i64 %indvars.iv, 1
  %exitcond.not = icmp eq i64 %indvars.iv.next, %wide.trip.count
  br i1 %exitcond.not, label %.critedge, label %9, !llvm.loop !68

.critedge:                                        ; preds = %23, %2
  %.010.lcssa = phi ptr [ null, %2 ], [ %.1, %23 ]
  ret ptr %.010.lcssa
}